;
; Definition file of libvipsCC-42.dll
; Automatic generated by gendef
; written by Kai Tietz 2008
;
LIBRARY "libvipsCC-42.dll"
EXPORTS
_ZN4vips15_private_detail7VPDMask5embedEP14im__DOUBLEMASK@4
_ZN4vips15_private_detail7VPDMaskC1EP14im__DOUBLEMASK@4
_ZN4vips15_private_detail7VPDMaskC1EPKc@4
_ZN4vips15_private_detail7VPDMaskC1Eii@8
_ZN4vips15_private_detail7VPDMaskC1EiiddSt6vectorIdSaIdEE@28
_ZN4vips15_private_detail7VPDMaskC1Ev
_ZN4vips15_private_detail7VPDMaskC2EP14im__DOUBLEMASK@4
_ZN4vips15_private_detail7VPDMaskC2EPKc@4
_ZN4vips15_private_detail7VPDMaskC2Eii@8
_ZN4vips15_private_detail7VPDMaskC2EiiddSt6vectorIdSaIdEE@28
_ZN4vips15_private_detail7VPDMaskC2Ev
_ZN4vips15_private_detail7VPDMaskD0Ev
_ZN4vips15_private_detail7VPDMaskD1Ev
_ZN4vips15_private_detail7VPDMaskD2Ev
_ZN4vips15_private_detail7VPIMask5embedEP11im__INTMASK@4
_ZN4vips15_private_detail7VPIMaskC1EP11im__INTMASK@4
_ZN4vips15_private_detail7VPIMaskC1EPKc@4
_ZN4vips15_private_detail7VPIMaskC1Eii@8
_ZN4vips15_private_detail7VPIMaskC1EiiiiSt6vectorIiSaIiEE@20
_ZN4vips15_private_detail7VPIMaskC1Ev
_ZN4vips15_private_detail7VPIMaskC2EP11im__INTMASK@4
_ZN4vips15_private_detail7VPIMaskC2EPKc@4
_ZN4vips15_private_detail7VPIMaskC2Eii@8
_ZN4vips15_private_detail7VPIMaskC2EiiiiSt6vectorIiSaIiEE@20
_ZN4vips15_private_detail7VPIMaskC2Ev
_ZN4vips15_private_detail7VPIMaskD0Ev
_ZN4vips15_private_detail7VPIMaskD1Ev
_ZN4vips15_private_detail7VPIMaskD2Ev
_ZN4vips15thread_shutdownEv ; Check!!! forwards to vips_thread_shutdown in libvips-42.dll (ordinal 1934)
_ZN4vips17im__ccp_print_allEv
_ZN4vips4initEPKc
_ZN4vips5VMask12make_privateEv
_ZN4vips5VMask8refblockD0Ev
_ZN4vips5VMask8refblockD1Ev
_ZN4vips5VMaskD0Ev
_ZN4vips5VMaskD1Ev
_ZN4vips5VMaskD2Ev
_ZN4vips5VMaskaSERKS0_@4
_ZN4vips5Vargv4callEv
_ZN4vips5VargvC1EPKc@4
_ZN4vips5VargvC2EPKc@4
_ZN4vips5VargvD1Ev
_ZN4vips5VargvD2Ev
_ZN4vips6VDMask3catES0_@8
_ZN4vips6VDMask3invEv@4
_ZN4vips6VDMask3logEdd
_ZN4vips6VDMask3mulES0_@8
_ZN4vips6VDMask3trnEv@4
_ZN4vips6VDMask5embedEP14im__DOUBLEMASK@4
_ZN4vips6VDMask5gaussEdd
_ZN4vips6VDMask6scaleiEv@4
_ZN4vips6VDMask8rotate45Ev@4
_ZN4vips6VDMask8rotate90Ev@4
_ZN4vips6VDMaskD0Ev
_ZN4vips6VDMaskD1Ev
_ZN4vips6VDMaskcvNS_6VIMaskEEv@4
_ZN4vips6VDMaskcvNS_6VImageEEv@4
_ZN4vips6VDMaskixEi@4
_ZN4vips6VError3appESs@4
_ZN4vips6VError3appEi@4
_ZN4vips6VError6perrorEPKc@4
_ZN4vips6VError6perrorEv@4
_ZN4vips6VErrorD0Ev
_ZN4vips6VErrorD1Ev
_ZN4vips6VIMask3catENS_6VDMaskE@8
_ZN4vips6VIMask3invEv@4
_ZN4vips6VIMask3logEdd
_ZN4vips6VIMask3mulENS_6VDMaskE@8
_ZN4vips6VIMask3trnEv@4
_ZN4vips6VIMask5embedEP11im__INTMASK@4
_ZN4vips6VIMask5gaussEdd
_ZN4vips6VIMask8rotate45Ev@4
_ZN4vips6VIMask8rotate90Ev@4
_ZN4vips6VIMask9gauss_sepEdd
_ZN4vips6VIMaskD0Ev
_ZN4vips6VIMaskD1Ev
_ZN4vips6VIMaskcvNS_6VDMaskEEv@4
_ZN4vips6VIMaskcvNS_6VImageEEv@4
_ZN4vips6VIMaskixEi@4
_ZN4vips6VImage10benchmark2Ev
_ZN4vips6VImage10benchmarknEi@8
_ZN4vips6VImage10copy_morphEiii@16
_ZN4vips6VImage10dE_fromLabES0_@8
_ZN4vips6VImage10dE_fromXYZES0_@8
_ZN4vips6VImage10dilate_rawENS_6VIMaskE@8
_ZN4vips6VImage10draw_floodEiiSt6vectorIdSaIdEE@12
_ZN4vips6VImage10draw_imageES0_ii@12
_ZN4vips6VImage10draw_pointEiiSt6vectorIdSaIdEE@12
_ZN4vips6VImage10flood_copyEiiSt6vectorIdSaIdEE@16
_ZN4vips6VImage10gaussnoiseEiidd
_ZN4vips6VImage10greyc_maskES0_iddddddddii@84
_ZN4vips6VImage10header_intEPc@4
_ZN4vips6VImage10icc_exportEPci@12
_ZN4vips6VImage10icc_importEPci@12
_ZN4vips6VImage10ifthenelseES0_S0_@12
_ZN4vips6VImage10maxpos_avgERdS1_@8
_ZN4vips6VImage10rank_imageESt6vectorIS0_SaIS0_EEi
_ZN4vips6VImage10shiftrightESt6vectorIdSaIdEE@8
_ZN4vips6VImage10shiftrightEi@8
_ZN4vips6VImage10similarityEdddd@36
_ZN4vips6VImage10tone_buildEdddddddd
_ZN4vips6VImage10video_testEii
_ZN4vips6VImage10video_v4l1EPciiiiii
_ZN4vips6VImage11CompressionEv
_ZN4vips6VImage11affinei_allEPcdddddd@56
_ZN4vips6VImage11align_bandsEv@4
_ZN4vips6VImage11convsep_rawENS_6VIMaskE@8
_ZN4vips6VImage11cross_phaseES0_@8
_ZN4vips6VImage11dE_fromdispES0_NS_8VDisplayE@12
_ZN4vips6VImage11debug_printEv
_ZN4vips6VImage11draw_circleEiiiiSt6vectorIdSaIdEE@20
_ZN4vips6VImage11draw_smudgeEiiii@16
_ZN4vips6VImage11falsecolourEv@4
_ZN4vips6VImage11fastcor_rawES0_@8
_ZN4vips6VImage11gradcor_rawES0_@8
_ZN4vips6VImage11history_getEv
_ZN4vips6VImage11insertplaceES0_St6vectorIiSaIiEES3_@16
_ZN4vips6VImage11insertplaceES0_ii@12
_ZN4vips6VImage11ismonotonicEv
_ZN4vips6VImage11lhisteq_rawEii@12
_ZN4vips6VImage11magick2vipsEPc
_ZN4vips6VImage11meta_removeEPKc@4
_ZN4vips6VImage12Lab2XYZ_tempEddd@28
_ZN4vips6VImage12XYZ2Lab_tempEddd@28
_ZN4vips6VImage12analyze2vipsEPc
_ZN4vips6VImage12convert2discEPKcS2_S2_
_ZN4vips6VImage12convsepf_rawENS_6VDMaskE@8
_ZN4vips6VImage12create_fmaskEiiiddddd
_ZN4vips6VImage12dE00_fromLabES0_@8
_ZN4vips6VImage12extract_areaEiiii@20
_ZN4vips6VImage12extract_bandEi@8
_ZN4vips6VImage12gammacorrectEd@12
_ZN4vips6VImage12hist_indexedES0_@8
_ZN4vips6VImage12hough_circleEiii@16
_ZN4vips6VImage12match_linearES0_iiiiiiii@40
_ZN4vips6VImage12meta_get_intEPKc@4
_ZN4vips6VImage12phasecor_fftES0_@8
_ZN4vips6VImage12system_imageEPcS1_S1_RS1_@20
_ZN4vips6VImage12tone_analyseEdddddd@52
_ZN4vips6VImage13dECMC_fromLabES0_@8
_ZN4vips6VImage13extract_bandsEii@12
_ZN4vips6VImage13header_doubleEPc@4
_ZN4vips6VImage13header_stringEPc@4
_ZN4vips6VImage13icc_transformEPcS1_i@16
_ZN4vips6VImage13label_regionsERi@8
_ZN4vips6VImage13maxpos_subpelERd@4
_ZN4vips6VImage13meta_get_areaEPKc@4
_ZN4vips6VImage13meta_get_blobEPKcPj@8
_ZN4vips6VImage13resize_linearEii@12
_ZN4vips6VImage13vips2mimejpegEi@4
_ZN4vips6VImage14dECMC_fromdispES0_NS_8VDisplayE@12
_ZN4vips6VImage14flt_image_freqEiddddd@48
_ZN4vips6VImage14global_balanceEd@12
_ZN4vips6VImage14point_bilinearEddi@20
_ZN4vips6VImage15_find_lroverlapES0_iiiiiiiRiRdS2_S2_S2_@52
_ZN4vips6VImage15_find_tboverlapES0_iiiiiiiRiRdS2_S2_S2_@52
_ZN4vips6VImage15draw_flood_blobEiiSt6vectorIdSaIdEE@12
_ZN4vips6VImage15flood_blob_copyEiiSt6vectorIdSaIdEE@16
_ZN4vips6VImage15global_balancefEd@12
_ZN4vips6VImage15identity_ushortEii
_ZN4vips6VImage15insert_noexpandES0_ii@16
_ZN4vips6VImage15meta_get_doubleEPKc@4
_ZN4vips6VImage15meta_get_stringEPKc@4
_ZN4vips6VImage15meta_get_typeofEPKc@4
_ZN4vips6VImage15rightshift_sizeEiii@16
_ZN4vips6VImage15similarity_areaEddddiiii@52
_ZN4vips6VImage16contrast_surfaceEii@12
_ZN4vips6VImage16draw_flood_otherES0_iii@16
_ZN4vips6VImage16flood_other_copyES0_iii@20
_ZN4vips6VImage16icc_export_depthEiPci@16
_ZN4vips6VImage16tone_build_rangeEiidddddddd
_ZN4vips6VImage17extract_areabandsEiiiiii@28
_ZN4vips6VImage17header_get_typeofEPc@4
_ZN4vips6VImage19icc_import_embeddedEi@8
_ZN4vips6VImage19match_linear_searchES0_iiiiiiiiii@48
_ZN4vips6VImage20contrast_surface_rawEii@12
_ZN4vips6VImage3absEv@4
_ZN4vips6VImage3addES0_@8
_ZN4vips6VImage3avgEv
_ZN4vips6VImage3cosEv@4
_ZN4vips6VImage3expEv@4
_ZN4vips6VImage3eyeEiid
_ZN4vips6VImage3heqEi@8
_ZN4vips6VImage3hspES0_@8
_ZN4vips6VImage3linESt6vectorIdSaIdEES3_@12
_ZN4vips6VImage3linEdd@20
_ZN4vips6VImage3logEv@4
_ZN4vips6VImage3maxEv
_ZN4vips6VImage3minEv
_ZN4vips6VImage3msbEv@4
_ZN4vips6VImage3powESt6vectorIdSaIdEE@8
_ZN4vips6VImage3powEd@12
_ZN4vips6VImage3sinEv@4
_ZN4vips6VImage3tanEv@4
_ZN4vips6VImage4HistEv
_ZN4vips6VImage4TypeEv
_ZN4vips6VImage4XresEv
_ZN4vips6VImage4YresEv
_ZN4vips6VImage4acosEv@4
_ZN4vips6VImage4asinEv@4
_ZN4vips6VImage4atanEv@4
_ZN4vips6VImage4c2psEv@4
_ZN4vips6VImage4ceilEv@4
_ZN4vips6VImage4clipEv@4
_ZN4vips6VImage4convENS_6VDMaskE@8
_ZN4vips6VImage4convENS_6VIMaskE@8
_ZN4vips6VImage4copyEv@4
_ZN4vips6VImage4expnESt6vectorIdSaIdEE@8
_ZN4vips6VImage4expnEd@12
_ZN4vips6VImage4fav4ES0_S0_S0_@16
_ZN4vips6VImage4feyeEiid
_ZN4vips6VImage4gaddEddS0_d@32
_ZN4vips6VImage4greyEii
_ZN4vips6VImage4gridEiii@16
_ZN4vips6VImage4histEi@8
_ZN4vips6VImage4lessES0_@8
_ZN4vips6VImage4lessESt6vectorIdSaIdEE@8
_ZN4vips6VImage4lessEd@12
_ZN4vips6VImage4lineES0_S0_St6vectorIiSaIiEES3_S3_S3_@28
_ZN4vips6VImage4lineEiiiii@20
_ZN4vips6VImage4moreES0_@8
_ZN4vips6VImage4moreESt6vectorIdSaIdEE@8
_ZN4vips6VImage4moreEd@12
_ZN4vips6VImage4rankEiii@16
_ZN4vips6VImage4ri2cES0_@8
_ZN4vips6VImage4rintEv@4
_ZN4vips6VImage4signEv@4
_ZN4vips6VImage4textEPcS1_iii
_ZN4vips6VImage4wrapEii@12
_ZN4vips6VImage4zoneEi
_ZN4vips6VImage4zoomEii@12
_ZN4vips6VImage5BandsEv
_ZN4vips6VImage5LevelEv
_ZN4vips6VImage5XsizeEv
_ZN4vips6VImage5YsizeEv
_ZN4vips6VImage5aconvENS_6VDMaskEii@16
_ZN4vips6VImage5blackEiii
_ZN4vips6VImage5blendES0_S0_@12
_ZN4vips6VImage5cacheEiii@16
_ZN4vips6VImage5convfENS_6VDMaskE@8
_ZN4vips6VImage5embedEiiiii@24
_ZN4vips6VImage5equalES0_@8
_ZN4vips6VImage5equalESt6vectorIdSaIdEE@8
_ZN4vips6VImage5equalEd@12
_ZN4vips6VImage5erodeENS_6VIMaskE@8
_ZN4vips6VImage5exp10Ev@4
_ZN4vips6VImage5fgreyEii
_ZN4vips6VImage5floorEv@4
_ZN4vips6VImage5fwfftEv@4
_ZN4vips6VImage5fzoneEi
_ZN4vips6VImage5greycEiddddddddii@80
_ZN4vips6VImage5log10Ev@4
_ZN4vips6VImage5pointEPcddi@24
_ZN4vips6VImage5rot90Ev@4
_ZN4vips6VImage5scaleEv@4
_ZN4vips6VImage5sinesEiidd
_ZN4vips6VImage5sliceEdd@20
_ZN4vips6VImage5spcorES0_@8
_ZN4vips6VImage5statsEv@4
_ZN4vips6VImage5stdifEddddii@44
_ZN4vips6VImage5writeEPKc@8
_ZN4vips6VImage5writeES0_@8
_ZN4vips6VImage5writeEv@4
_ZN4vips6VImage5zeroxEi@8
_ZN4vips6VImage6CodingEv
_ZN4vips6VImage6LengthEv
_ZN4vips6VImage6affineEddddddiiii@68
_ZN4vips6VImage6c2amphEv@4
_ZN4vips6VImage6c2imagEv@4
_ZN4vips6VImage6c2realEv@4
_ZN4vips6VImage6c2rectEv@4
_ZN4vips6VImage6circleEiiii@16
_ZN4vips6VImage6clip2cEv@4
_ZN4vips6VImage6clip2dEv@4
_ZN4vips6VImage6clip2fEv@4
_ZN4vips6VImage6clip2iEv@4
_ZN4vips6VImage6clip2sEv@4
_ZN4vips6VImage6correlES0_iiiiiiRiS1_@36
_ZN4vips6VImage6dilateENS_6VIMaskE@8
_ZN4vips6VImage6divideES0_@8
_ZN4vips6VImage6getextEv
_ZN4vips6VImage6grad_xEv@4
_ZN4vips6VImage6grad_yEv@4
_ZN4vips6VImage6histeqEv@4
_ZN4vips6VImage6histgrEi@8
_ZN4vips6VImage6histnDEi@8
_ZN4vips6VImage6insertES0_St6vectorIiSaIiEES3_@16
_ZN4vips6VImage6insertES0_ii@16
_ZN4vips6VImage6invertEv@4
_ZN4vips6VImage6invfftEv@4
_ZN4vips6VImage6lesseqES0_@8
_ZN4vips6VImage6lesseqESt6vectorIdSaIdEE@8
_ZN4vips6VImage6lesseqEd@12
_ZN4vips6VImage6linregESt6vectorIS0_SaIS0_EES1_IdSaIdEE
_ZN4vips6VImage6lrjoinES0_@8
_ZN4vips6VImage6maplutES0_@8
_ZN4vips6VImage6maxposEv@4
_ZN4vips6VImage6minposEv@4
_ZN4vips6VImage6moreeqES0_@8
_ZN4vips6VImage6moreeqESt6vectorIdSaIdEE@8
_ZN4vips6VImage6moreeqEd@12
_ZN4vips6VImage6recombENS_6VDMaskE@8
_ZN4vips6VImage6rot180Ev@4
_ZN4vips6VImage6rot270Ev@4
_ZN4vips6VImage6shrinkEdd@20
_ZN4vips6VImage6systemEPc@4
_ZN4vips6VImage6tbjoinES0_@8
_ZN4vips6VImage6threshEd@12
_ZN4vips6VImage7BandFmtEv
_ZN4vips6VImage7LCh2LabEv@4
_ZN4vips6VImage7LCh2UCSEv@4
_ZN4vips6VImage7Lab2LChEv@4
_ZN4vips6VImage7Lab2UCSEv@4
_ZN4vips6VImage7Lab2XYZEv@4
_ZN4vips6VImage7UCS2LChEv@4
_ZN4vips6VImage7UCS2LabEv@4
_ZN4vips6VImage7UCS2XYZEv@4
_ZN4vips6VImage7XYZ2LabEv@4
_ZN4vips6VImage7XYZ2UCSEv@4
_ZN4vips6VImage7XYZ2YxyEv@4
_ZN4vips6VImage7XoffsetEv
_ZN4vips6VImage7YoffsetEv
_ZN4vips6VImage7Yxy2XYZEv@4
_ZN4vips6VImage7affineiEPcddddddiiii@72
_ZN4vips6VImage7binfileEPciiii
_ZN4vips6VImage7clip2cmEv@4
_ZN4vips6VImage7clip2uiEv@4
_ZN4vips6VImage7clip2usEv@4
_ZN4vips6VImage7compassENS_6VIMaskE@8
_ZN4vips6VImage7convsepENS_6VDMaskE@8
_ZN4vips6VImage7convsepENS_6VIMaskE@8
_ZN4vips6VImage7convsubENS_6VIMaskEii@16
_ZN4vips6VImage7deviateEv
_ZN4vips6VImage7disp_psEv@4
_ZN4vips6VImage7extractEiiiii@24
_ZN4vips6VImage7fastcorES0_@8
_ZN4vips6VImage7fliphorEv@4
_ZN4vips6VImage7flipverEv@4
_ZN4vips6VImage7freqfltES0_@8
_ZN4vips6VImage7gradcorES0_@8
_ZN4vips6VImage7histcumEv@4
_ZN4vips6VImage7invfftrEv@4
_ZN4vips6VImage7lhisteqEii@12
_ZN4vips6VImage7litecorES0_id@20
_ZN4vips6VImage7lrmergeES0_iii@20
_ZN4vips6VImage7make_xyEii
_ZN4vips6VImage7measureEiiiiii@28
_ZN4vips6VImage7orimageES0_@8
_ZN4vips6VImage7orimageESt6vectorIdSaIdEE@8
_ZN4vips6VImage7orimageEi@8
_ZN4vips6VImage7profileEi@8
_ZN4vips6VImage7projectERS0_@8
_ZN4vips6VImage7rotquadEv@4
_ZN4vips6VImage7scalepsEv@4
_ZN4vips6VImage7segmentERi@8
_ZN4vips6VImage7sharpenEiddddd@48
_ZN4vips6VImage7tbmergeES0_iii@20
_ZN4vips6VImage7vips2dzEPc@4
_ZN4vips6VImage8Lab2LabQEv@4
_ZN4vips6VImage8Lab2LabSEv@4
_ZN4vips6VImage8Lab2dispENS_8VDisplayE@8
_ZN4vips6VImage8LabQ2LabEv@4
_ZN4vips6VImage8LabQ2XYZEv@4
_ZN4vips6VImage8LabS2LabEv@4
_ZN4vips6VImage8XYZ2dispENS_8VDisplayE@8
_ZN4vips6VImage8XYZ2sRGBEv@4
_ZN4vips6VImage8aconvsepENS_6VDMaskEi@12
_ZN4vips6VImage8andimageES0_@8
_ZN4vips6VImage8andimageESt6vectorIdSaIdEE@8
_ZN4vips6VImage8andimageEi@8
_ZN4vips6VImage8bandjoinES0_@8
_ZN4vips6VImage8bandmeanEv@4
_ZN4vips6VImage8buildlutENS_6VDMaskE
_ZN4vips6VImage8clip2dcmEv@4
_ZN4vips6VImage8clip2fmtEi@8
_ZN4vips6VImage8cmulnormES0_@8
_ZN4vips6VImage8cntlinesEi@4
_ZN4vips6VImage8conv_rawENS_6VIMaskE@8
_ZN4vips6VImage8convsepfENS_6VDMaskE@8
_ZN4vips6VImage8copy_setEiddii@32
_ZN4vips6VImage8csv2vipsEPc
_ZN4vips6VImage8disp2LabENS_8VDisplayE@8
_ZN4vips6VImage8disp2XYZENS_8VDisplayE@8
_ZN4vips6VImage8eorimageES0_@8
_ZN4vips6VImage8eorimageESt6vectorIdSaIdEE@8
_ZN4vips6VImage8eorimageEi@8
_ZN4vips6VImage8exr2vipsEPc
_ZN4vips6VImage8filenameEv
_ZN4vips6VImage8gradientENS_6VIMaskE@8
_ZN4vips6VImage8histnormEv@4
_ZN4vips6VImage8histplotEv@4
_ZN4vips6VImage8histspecES0_@8
_ZN4vips6VImage8identityEi
_ZN4vips6VImage8initdescEiiiNS0_8TBandFmtENS0_7TCodingENS0_5TTypeEffii@40
_ZN4vips6VImage8lrmerge1ES0_iiiiiiiii@44
_ZN4vips6VImage8lrmosaicES0_iiiiiiiii@44
_ZN4vips6VImage8maxvalueESt6vectorIS0_SaIS0_EE
_ZN4vips6VImage8meta_getEPKcP7_GValue@8
_ZN4vips6VImage8meta_setEPKcP7_GValue@8
_ZN4vips6VImage8meta_setEPKcPFiPvS3_ES3_@12
_ZN4vips6VImage8meta_setEPKcPFiPvS3_ES3_j@16
_ZN4vips6VImage8meta_setEPKcS2_@8
_ZN4vips6VImage8meta_setEPKcd@12
_ZN4vips6VImage8meta_setEPKci@8
_ZN4vips6VImage8mpercentEd@8
_ZN4vips6VImage8msb_bandEi@8
_ZN4vips6VImage8multiplyES0_@8
_ZN4vips6VImage8notequalES0_@8
_ZN4vips6VImage8notequalESt6vectorIdSaIdEE@8
_ZN4vips6VImage8notequalEd@12
_ZN4vips6VImage8png2vipsEPc
_ZN4vips6VImage8ppm2vipsEPc
_ZN4vips6VImage8rank_rawEiii@16
_ZN4vips6VImage8refblock11debug_printEv
_ZN4vips6VImage8refblock6addrefEPS1_@4
_ZN4vips6VImage8refblock9removerefEv
_ZN4vips6VImage8refblockC1Ev
_ZN4vips6VImage8refblockC2Ev
_ZN4vips6VImage8refblockD0Ev
_ZN4vips6VImage8refblockD1Ev
_ZN4vips6VImage8refblockD2Ev
_ZN4vips6VImage8remosaicEPcS1_@12
_ZN4vips6VImage8sRGB2XYZEv@4
_ZN4vips6VImage8stretch3Edd@20
_ZN4vips6VImage8subtractES0_@8
_ZN4vips6VImage8tbmerge1ES0_iiiiiiiii@44
_ZN4vips6VImage8tbmosaicES0_iiiiiiiii@44
_ZN4vips6VImage8tone_mapES0_@8
_ZN4vips6VImage8vips2csvEPc@4
_ZN4vips6VImage8vips2pngEPc@4
_ZN4vips6VImage8vips2ppmEPc@4
_ZN4vips6VImage9LabQ2LabSEv@4
_ZN4vips6VImage9LabQ2dispENS_8VDisplayE@8
_ZN4vips6VImage9LabS2LabQEv@4
_ZN4vips6VImage9addgnoiseEd@12
_ZN4vips6VImage9argb2rgbaEv@4
_ZN4vips6VImage9benchmarkEv@4
_ZN4vips6VImage9convf_rawENS_6VDMaskE@8
_ZN4vips6VImage9copy_fileEv@4
_ZN4vips6VImage9copy_swapEv@4
_ZN4vips6VImage9draw_lineEiiiiSt6vectorIdSaIdEE@20
_ZN4vips6VImage9draw_maskES0_iiSt6vectorIdSaIdEE@16
_ZN4vips6VImage9draw_rectEiiiiiSt6vectorIdSaIdEE@24
_ZN4vips6VImage9erode_rawENS_6VIMaskE@8
_ZN4vips6VImage9fits2vipsEPc
_ZN4vips6VImage9float2radEv@4
_ZN4vips6VImage9fractsurfEid
_ZN4vips6VImage9gbandjoinESt6vectorIS0_SaIS0_EE
_ZN4vips6VImage9icc_ac2rcEPc@8
_ZN4vips6VImage9invertlutENS_6VDMaskEi
_ZN4vips6VImage9jpeg2vipsEPc
_ZN4vips6VImage9lab_morphENS_6VDMaskEdddd@40
_ZN4vips6VImage9lindetectENS_6VIMaskE@8
_ZN4vips6VImage9lrmosaic1ES0_iiiiiiiiiiiii@60
_ZN4vips6VImage9mask2vipsENS_6VDMaskE
_ZN4vips6VImage9print_allEv
_ZN4vips6VImage9printdescEv
_ZN4vips6VImage9quadraticES0_@8
_ZN4vips6VImage9rad2floatEv@4
_ZN4vips6VImage9remainderES0_@8
_ZN4vips6VImage9remainderESt6vectorIdSaIdEE@8
_ZN4vips6VImage9remainderEd@12
_ZN4vips6VImage9replicateEii@12
_ZN4vips6VImage9shiftleftESt6vectorIdSaIdEE@8
_ZN4vips6VImage9shiftleftEi@8
_ZN4vips6VImage9spcor_rawES0_@8
_ZN4vips6VImage9stdif_rawEddddii@44
_ZN4vips6VImage9subsampleEii@12
_ZN4vips6VImage9tbmosaic1ES0_iiiiiiiiiiiii@60
_ZN4vips6VImage9tiff2vipsEPc
_ZN4vips6VImage9vips2jpegEPc@4
_ZN4vips6VImage9vips2maskEv@4
_ZN4vips6VImage9vips2tiffEPc@4
_ZN4vips6VImageC1EP10_VipsImage@4
_ZN4vips6VImageC1EPKcS2_@8
_ZN4vips6VImageC1EPviiiNS0_8TBandFmtE@20
_ZN4vips6VImageC1ERKS0_@4
_ZN4vips6VImageC1Ev
_ZN4vips6VImageC2EP10_VipsImage@4
_ZN4vips6VImageC2EPKcS2_@8
_ZN4vips6VImageC2EPviiiNS0_8TBandFmtE@20
_ZN4vips6VImageC2ERKS0_@4
_ZN4vips6VImageC2Ev
_ZN4vips6VImageD0Ev
_ZN4vips6VImageD1Ev
_ZN4vips6VImageaSERKS0_@4
_ZN4vips6verrorESs ; Check!!! Couldn't determine function argument count. Function doesn't return. 
_ZN4vips8VDisplay8refblock5clutsEv
_ZN4vips8VDisplay8refblock6wreadyEv
_ZN4vips8VDisplay8refblock8cleanlutEv
_ZN4vips8VDisplay8refblock8cleanrefEv
_ZN4vips8VDisplayC1EPKc@4
_ZN4vips8VDisplayC1Ev
_ZN4vips8VDisplayC2EPKc@4
_ZN4vips8VDisplayC2Ev
_ZN4vips8VDisplayD0Ev
_ZN4vips8VDisplayD1Ev
_ZN4vips8VDisplayD2Ev
_ZN4vips8VDisplayaSERKS0_@4
_ZN4vips8shutdownEv ; Check!!! forwards to vips_shutdown in libvips-42.dll (ordinal 1879)
_ZNK4vips15_private_detail7VPDMask13ostream_printERSo@4
_ZNK4vips15_private_detail7VPDMask3dupEv
_ZNK4vips15_private_detail7VPDMask5arrayEv
_ZNK4vips15_private_detail7VPDMask5scaleEv
_ZNK4vips15_private_detail7VPDMask5xsizeEv
_ZNK4vips15_private_detail7VPDMask5ysizeEv
_ZNK4vips15_private_detail7VPDMask6offsetEv
_ZNK4vips15_private_detail7VPDMask8filenameEv
_ZNK4vips15_private_detail7VPIMask13ostream_printERSo@4
_ZNK4vips15_private_detail7VPIMask3dupEv
_ZNK4vips15_private_detail7VPIMask5arrayEv
_ZNK4vips15_private_detail7VPIMask5scaleEv
_ZNK4vips15_private_detail7VPIMask5xsizeEv
_ZNK4vips15_private_detail7VPIMask5ysizeEv
_ZNK4vips15_private_detail7VPIMask6offsetEv
_ZNK4vips15_private_detail7VPIMask8filenameEv
_ZNK4vips5VMask13ostream_printERSo ; Check!!! Couldn't determine function argument count. Function doesn't return. 
_ZNK4vips6VError13ostream_printERSo@4
_ZNK4vips6VError4whatEv
_ZNK4vips6VImage4dataEv
_ZTIN4vips15_private_detail6VPMaskE DATA
_ZTIN4vips15_private_detail7VPDMaskE DATA
_ZTIN4vips15_private_detail7VPIMaskE DATA
_ZTIN4vips5VMask8refblockE DATA
_ZTIN4vips5VMaskE DATA
_ZTIN4vips6VDMaskE DATA
_ZTIN4vips6VErrorE DATA
_ZTIN4vips6VIMaskE DATA
_ZTIN4vips6VImage8refblockE DATA
_ZTIN4vips6VImageE DATA
_ZTIN4vips8VDisplayE DATA
_ZTISt9exception DATA
_ZTSN4vips15_private_detail6VPMaskE DATA
_ZTSN4vips15_private_detail7VPDMaskE DATA
_ZTSN4vips15_private_detail7VPIMaskE DATA
_ZTSN4vips5VMask8refblockE DATA
_ZTSN4vips5VMaskE DATA
_ZTSN4vips6VDMaskE DATA
_ZTSN4vips6VErrorE DATA
_ZTSN4vips6VIMaskE DATA
_ZTSN4vips6VImage8refblockE DATA
_ZTSN4vips6VImageE DATA
_ZTSN4vips8VDisplayE DATA
_ZTSSt9exception DATA
_ZTVN4vips15_private_detail7VPDMaskE DATA
_ZTVN4vips15_private_detail7VPIMaskE DATA
_ZTVN4vips5VMask8refblockE DATA
_ZTVN4vips5VMaskE DATA
_ZTVN4vips6VDMaskE DATA
_ZTVN4vips6VErrorE DATA
_ZTVN4vips6VIMaskE DATA
_ZTVN4vips6VImage8refblockE DATA
_ZTVN4vips6VImageE DATA
_ZTVN4vips8VDisplayE DATA
